(lp0
(dp1
S'area'
p2
F4986.94
sS'name'
p3
S'Artibonite'
p4
sS'coordinates'
p5
(dp6
S'latitude'
p7
F19.45
sS'longitude'
p8
F-72.68
ssS'capital'
p9
S'Gonaive'
p10
sa(dp11
g2
F3487.41
sg3
S'Centre'
p12
sg5
(dp13
g7
F19.15
sg8
F-72.016667
ssg9
S'Hinche'
p14
sa(dp15
g2
F4982.56
sg3
S'Ouest'
p16
sg5
(dp17
g7
F19.15
sg8
F-72.016667
ssg9
S'Port-au-Prince'
p18
sa(dp19
g2
F1911.97
sg3
S"Grand'Anse"
p20
sg5
(dp21
g7
F18.65
sg8
F-74.11
ssg9
S'Jeremi'
p22
sa(dp23
g2
F2653.6
sg3
S'Sud'
p24
sg5
(dp25
g7
F18.2
sg8
F-73.75
ssg9
S'Les Cayes'
p26
sa(dp27
g2
F2034.1
sg3
S'Sud-Est'
p28
sg5
(dp29
g7
F18.23
sg8
F-72.53
ssg9
S'Jacmel'
p30
sa(dp31
g2
F1267.77
sg3
S'Nippe'
p32
sg5
(dp33
g7
F18.27
sg8
F-73.6
ssg9
S'Miragoane'
p34
sa(dp35
g2
F2102.88
sg3
S'Nord-Ouest'
p36
sg5
(dp37
g7
F19.95
sg8
F-72.83
ssg9
S'Port-de-Paix'
p38
sa(dp39
g2
F2114.91
sg3
S'Nord'
p40
sg5
(dp41
g7
F19.7667
sg8
F-72.2
ssg9
S'Cap-Haitian'
p42
sa(dp43
g2
F1622.93
sg3
S'Nord-Est'
p44
sg5
(dp45
g7
F19.6678
sg8
F-71.8397
ssg9
S'Fort-Liberte'
p46
sa.